target datalayout = "e-m:e-p270:32:32-p271:32:32-p272:64:64-i64:64-i128:128-f80:128-n8:16:32:64-S128"
target triple = "x86_64-pc-linux-gnu"

; Function Attrs: nounwind uwtable
define internal void @pred16x16_dc_12_c(ptr noundef %0, i64 noundef %1) #1 {
  %3 = alloca ptr, align 8
  %4 = alloca i64, align 8
  %5 = alloca i32, align 4
  %6 = alloca i32, align 4
  %7 = alloca ptr, align 8
  %8 = alloca i64, align 8
  store ptr %0, ptr %3, align 8, !tbaa !12
  store i64 %1, ptr %4, align 8, !tbaa !14
  call void @llvm.lifetime.start.p0(i64 4, ptr %5) #9
  call void @llvm.lifetime.start.p0(i64 4, ptr %6) #9
  store i32 0, ptr %6, align 4, !tbaa !9
  call void @llvm.lifetime.start.p0(i64 8, ptr %7) #9
  %9 = load ptr, ptr %3, align 8, !tbaa !12
  store ptr %9, ptr %7, align 8, !tbaa !16
  call void @llvm.lifetime.start.p0(i64 8, ptr %8) #9
  %10 = load i64, ptr %4, align 8, !tbaa !14
  %11 = ashr i64 %10, 1
  store i64 %11, ptr %4, align 8, !tbaa !14
  store i32 0, ptr %5, align 4, !tbaa !9
  br label %12

12:                                               ; preds = %27, %2
  %13 = load i32, ptr %5, align 4, !tbaa !9
  %14 = icmp slt i32 %13, 16
  br i1 %14, label %15, label %30

15:                                               ; preds = %12
  %16 = load ptr, ptr %7, align 8, !tbaa !16
  %17 = load i32, ptr %5, align 4, !tbaa !9
  %18 = sext i32 %17 to i64
  %19 = load i64, ptr %4, align 8, !tbaa !14
  %20 = mul nsw i64 %18, %19
  %21 = add nsw i64 -1, %20
  %22 = getelementptr inbounds i16, ptr %16, i64 %21
  %23 = load i16, ptr %22, align 2, !tbaa !19
  %24 = zext i16 %23 to i32
  %25 = load i32, ptr %6, align 4, !tbaa !9
  %26 = add nsw i32 %25, %24
  store i32 %26, ptr %6, align 4, !tbaa !9
  br label %27

27:                                               ; preds = %15
  %28 = load i32, ptr %5, align 4, !tbaa !9
  %29 = add nsw i32 %28, 1
  store i32 %29, ptr %5, align 4, !tbaa !9
  br label %12, !llvm.loop !165

30:                                               ; preds = %12
  store i32 0, ptr %5, align 4, !tbaa !9
  br label %31

31:                                               ; preds = %45, %30
  %32 = load i32, ptr %5, align 4, !tbaa !9
  %33 = icmp slt i32 %32, 16
  br i1 %33, label %34, label %48

34:                                               ; preds = %31
  %35 = load ptr, ptr %7, align 8, !tbaa !16
  %36 = load i32, ptr %5, align 4, !tbaa !9
  %37 = sext i32 %36 to i64
  %38 = load i64, ptr %4, align 8, !tbaa !14
  %39 = sub nsw i64 %37, %38
  %40 = getelementptr inbounds i16, ptr %35, i64 %39
  %41 = load i16, ptr %40, align 2, !tbaa !19
  %42 = zext i16 %41 to i32
  %43 = load i32, ptr %6, align 4, !tbaa !9
  %44 = add nsw i32 %43, %42
  store i32 %44, ptr %6, align 4, !tbaa !9
  br label %45

45:                                               ; preds = %34
  %46 = load i32, ptr %5, align 4, !tbaa !9
  %47 = add nsw i32 %46, 1
  store i32 %47, ptr %5, align 4, !tbaa !9
  br label %31, !llvm.loop !166

48:                                               ; preds = %31
  %49 = load i32, ptr %6, align 4, !tbaa !9
  %50 = add nsw i32 %49, 16
  %51 = ashr i32 %50, 5
  %52 = sext i32 %51 to i64
  %53 = mul i64 %52, 281479271743489
  store i64 %53, ptr %8, align 8, !tbaa !14
  store i32 0, ptr %5, align 4, !tbaa !9
  br label %54

54:                                               ; preds = %73, %48
  %55 = load i32, ptr %5, align 4, !tbaa !9
  %56 = icmp slt i32 %55, 16
  br i1 %56, label %57, label %76

57:                                               ; preds = %54
  %58 = load i64, ptr %8, align 8, !tbaa !14
  %59 = load ptr, ptr %7, align 8, !tbaa !16
  %60 = getelementptr inbounds i16, ptr %59, i64 0
  store i64 %58, ptr %60, align 8, !tbaa !18
  %61 = load i64, ptr %8, align 8, !tbaa !14
  %62 = load ptr, ptr %7, align 8, !tbaa !16
  %63 = getelementptr inbounds i16, ptr %62, i64 4
  store i64 %61, ptr %63, align 8, !tbaa !18
  %64 = load i64, ptr %8, align 8, !tbaa !14
  %65 = load ptr, ptr %7, align 8, !tbaa !16
  %66 = getelementptr inbounds i16, ptr %65, i64 8
  store i64 %64, ptr %66, align 8, !tbaa !18
  %67 = load i64, ptr %8, align 8, !tbaa !14
  %68 = load ptr, ptr %7, align 8, !tbaa !16
  %69 = getelementptr inbounds i16, ptr %68, i64 12
  store i64 %67, ptr %69, align 8, !tbaa !18
  %70 = load i64, ptr %4, align 8, !tbaa !14
  %71 = load ptr, ptr %7, align 8, !tbaa !16
  %72 = getelementptr inbounds i16, ptr %71, i64 %70
  store ptr %72, ptr %7, align 8, !tbaa !16
  br label %73

73:                                               ; preds = %57
  %74 = load i32, ptr %5, align 4, !tbaa !9
  %75 = add nsw i32 %74, 1
  store i32 %75, ptr %5, align 4, !tbaa !9
  br label %54, !llvm.loop !167

76:                                               ; preds = %54
  call void @llvm.lifetime.end.p0(i64 8, ptr %8) #9
  call void @llvm.lifetime.end.p0(i64 8, ptr %7) #9
  call void @llvm.lifetime.end.p0(i64 4, ptr %6) #9
  call void @llvm.lifetime.end.p0(i64 4, ptr %5) #9
  ret void
}