; Function Attrs: nofree norecurse nosync nounwind memory(argmem: readwrite) uwtable
define internal void @pred16x16_dc_12_c(ptr noundef captures(none) %0, i64 noundef %1) #3 {
  %3 = ashr i64 %1, 1
  %invariant.gep = getelementptr i8, ptr %0, i64 -2
  br label %4

4:                                                ; preds = %2, %4
  %indvars.iv = phi i64 [ 0, %2 ], [ %indvars.iv.next, %4 ]
  %.02630 = phi i32 [ 0, %2 ], [ %8, %4 ]
  %5 = mul nsw i64 %3, %indvars.iv
  %gep = getelementptr i16, ptr %invariant.gep, i64 %5
  %6 = load i16, ptr %gep, align 2, !tbaa !9
  %7 = zext i16 %6 to i32
  %8 = add nuw nsw i32 %.02630, %7
  %indvars.iv.next = add nuw nsw i64 %indvars.iv, 1
  %exitcond.not = icmp eq i64 %indvars.iv.next, 16
  br i1 %exitcond.not, label %.preheader, label %4, !llvm.loop !161

.preheader:                                       ; preds = %4, %.preheader
  %indvars.iv37 = phi i64 [ %indvars.iv.next38, %.preheader ], [ 0, %4 ]
  %.132 = phi i32 [ %13, %.preheader ], [ %8, %4 ]
  %9 = sub nsw i64 %indvars.iv37, %3
  %10 = getelementptr inbounds i16, ptr %0, i64 %9
  %11 = load i16, ptr %10, align 2, !tbaa !9
  %12 = zext i16 %11 to i32
  %13 = add nuw nsw i32 %.132, %12
  %indvars.iv.next38 = add nuw nsw i64 %indvars.iv37, 1
  %exitcond40.not = icmp eq i64 %indvars.iv.next38, 16
  br i1 %exitcond40.not, label %14, label %.preheader, !llvm.loop !162

14:                                               ; preds = %.preheader
  %15 = add nuw nsw i32 %13, 16
  %16 = lshr i32 %15, 5
  %17 = zext nneg i32 %16 to i64
  %18 = mul i64 %17, 281479271743489
  br label %19

19:                                               ; preds = %14, %19
  %.034 = phi ptr [ %0, %14 ], [ %23, %19 ]
  %.233 = phi i32 [ 0, %14 ], [ %24, %19 ]
  store i64 %18, ptr %.034, align 8, !tbaa !8
  %20 = getelementptr inbounds nuw i8, ptr %.034, i64 8
  store i64 %18, ptr %20, align 8, !tbaa !8
  %21 = getelementptr inbounds nuw i8, ptr %.034, i64 16
  store i64 %18, ptr %21, align 8, !tbaa !8
  %22 = getelementptr inbounds nuw i8, ptr %.034, i64 24
  store i64 %18, ptr %22, align 8, !tbaa !8
  %23 = getelementptr inbounds i16, ptr %.034, i64 %3
  %24 = add nuw nsw i32 %.233, 1
  %exitcond41.not = icmp eq i32 %24, 16
  br i1 %exitcond41.not, label %25, label %19, !llvm.loop !163

25:                                               ; preds = %19
  ret void
}